((ineural_network
NeuralNet
p0
(dp1
S'outputs'
p2
(lp3
(lp4
I0
aI1
aI-1
aI1
aI1
aI-1
aI-1
aI-1
aI-1
aa(lp5
F0.99922104842617221
aF2.2359505112167529e-07
aF5.7464620714983829e-08
aF3.1635568834873611e-08
aF0.99886970508556916
aF0.97329295033655472
aF0.00011419046401626896
aF0.99994171862867798
aF2.6648914542418108e-06
aF0.9994445906532603
aF0.0070463561763415101
aF0.99999998826980463
aF5.2937603755664195e-08
aF0.76281075369116402
aF0.99999829878655033
aF1.2715229973641658e-06
aF0.003537772851830902
aF0.99999997424460108
aF0.044774369144699004
aF0.64742978602658108
aF4.8489339676459706e-06
aF0.99999088944156933
aF0.90906621801193943
aF1.2572328794220394e-05
aF0.87373562475086586
aF0.99962190302420939
aF0.99937819516812199
aF0.00010384636711772113
aF4.1203219792775031e-07
aF0.99999999015389396
aa(lp6
F3.7344984597091609e-05
aF0.0018256098753841815
aF0.00028462415222090128
aF1.4664009407674374e-11
aF3.9184576196816974e-13
aF1.696313884437029e-05
aF0.97816032765354388
aF0.00022319160496438682
aF0.00031756705221068021
aasS'weights'
p7
(lp8
(lp9
(lp10
F-3.12419986966
aF-1.0538108808906326
aF1.8650505759546039
aF6.8651779750681632
aF1.9328906455840003
aF-5.7277876983226248
aF0.25091490040197673
aF-9.0375391522832587
aF-0.65617909704599553
aF2.4884936766901546
aF-1.604792654076616
aF-2.4928371111063798
aF-1.4703634979010707
aF-1.532069914606462
aF2.0757454155983552
aF2.8280482638602638
aF-1.7427953631305397
aF-1.2532051654826071
aF1.6638814848738563
aF2.4001528103561967
aF-2.2404707784666762
aF0.71644616035206388
aF8.8606016720093805
aF3.0232092780709596
aF2.1068831248924793
aF-1.4029548260145472
aF0.052230599395545106
aF2.4496313339276305
aF-0.30056303772881593
aF2.3716726307678404
aa(lp11
F2.5908453034222645
aF0.4211369024243255
aF-10.690304606863757
aF3.883678049153759
aF-2.2459739282635609
aF-1.5354880204598882
aF-1.2299912407433706
aF1.8203272219698658
aF-2.8334646861927886
aF-2.3918288606023097
aF4.412141421914904
aF-0.90977075396421725
aF-5.3678129719452015
aF3.6352840847377266
aF13.640344777545726
aF-1.1915415363794861
aF2.6257330339114446
aF-3.1469101731161619
aF9.0019325837282853
aF4.3581544510285841
aF-1.0382114553795077
aF0.96452199449473974
aF5.4093352438395899
aF0.79852356834687033
aF-0.60775321884462696
aF3.9846556364808077
aF-2.8201601549359356
aF8.4318534114141048
aF4.0584794557675181
aF3.2979348443610355
aa(lp12
F-3.7678031087607611
aF0.49449527168667379
aF0.16662201464016135
aF-0.069159080434844838
aF-10.083575826206603
aF-4.9568962039766014
aF8.5028625836141849
aF-3.1345764422718174
aF-1.8473511970258791
aF-6.6971454822854515
aF6.6607900817491394
aF-4.7500946164852724
aF1.0856147036094759
aF3.2904163595309508
aF2.4626776915980724
aF-1.3121222533413537
aF3.5606424512837802
aF-5.5008541033838334
aF-1.6506018866346623
aF1.950737577409555
aF-0.17448895585720758
aF-1.9336678779078897
aF-1.6262747008268246
aF4.2123943065351801
aF4.2243264726613443
aF-0.97254636566986452
aF0.025033115642149793
aF-0.45220305953077061
aF-0.56404979343730521
aF-1.1895836477575159
aa(lp13
F1.719234919735058
aF3.8439046330692679
aF1.1583048066754786
aF-4.3377431832068538
aF1.9102989628564051
aF-3.6835306933497471
aF-1.6861963741635795
aF1.549344217607598
aF-3.7022971643671774
aF1.3722577942640364
aF5.1076161792363095
aF-3.5387466269055032
aF5.1053239739740217
aF3.7049849543057678
aF4.2224332327471172
aF1.9657992851637878
aF1.8551302847317312
aF-4.3263887511267942
aF0.11788386197065373
aF-5.8988638055831037
aF-1.7790920314697045
aF-0.1906197033239905
aF-3.6559419046634618
aF5.4810058094126353
aF10.071530192555286
aF5.8895761419503065
aF-1.0110960098413506
aF-2.2005538808768113
aF1.4084223370543407
aF6.1151183648513561
aa(lp14
F-9.1140327561167194
aF-3.974593561199208
aF-3.9778193151940178
aF-3.4344239603260949
aF0.58025187615406371
aF-4.482758299244872
aF4.6252793144661588
aF-4.9353444974723351
aF-9.1387748025988333
aF-2.0396129617127836
aF-1.2950872889374987
aF-0.61750887130041243
aF-5.7200402104196479
aF6.0125604238556578
aF1.2656643487297776
aF-0.082738741969770019
aF-0.51226660501848276
aF2.6563342231408233
aF-4.1730030484461924
aF7.2325250922023319
aF3.9519302810702723
aF-1.3900520854363594
aF-2.0981609773002217
aF-6.1739432798215699
aF-3.5855596561942282
aF-5.8028298364376534
aF-1.8858237213805873
aF-2.854173364541591
aF-3.4858159624390108
aF6.0265686729470502
aa(lp15
F-4.900773422824674
aF2.6313385521622972
aF2.0518241899347167
aF6.6290615841800706
aF0.57641536982454111
aF-4.0948423600401505
aF-1.3482002958506618
aF-5.3257978932387422
aF2.885574389658673
aF5.1505476987003274
aF-0.78183705806144566
aF-8.8823655690972974
aF4.014706422660657
aF-2.3091789116499988
aF0.020690728193082483
aF3.5971483046950548
aF-4.0185940977783829
aF-6.4674663144489868
aF4.6146767889944975
aF3.6727402237440123
aF2.4594318832679503
aF-0.4326496794532837
aF-0.40901861801971356
aF0.12249297746524651
aF-4.5226027535749793
aF4.8558766442773127
aF-2.0038090049783954
aF4.53982731296131
aF3.3628303299594102
aF4.3781183412927742
aa(lp16
F-0.30997803849567535
aF4.0630523945454824
aF1.7503016627626464
aF6.2349375538206919
aF1.8738117334356319
aF2.5149035010092309
aF2.8432666518997394
aF-1.3961817759655992
aF-5.7554436651197687
aF1.0170799596659392
aF2.8237648591200428
aF-4.203157362042103
aF-1.5043765067007153
aF3.7487115146511312
aF0.89317366385570274
aF9.2048244812256943
aF10.18337876347157
aF-4.1338348092904535
aF-1.3987754621399549
aF-5.7247475416862077
aF4.6607016506980115
aF0.025142942707917792
aF-2.7232344022838482
aF4.6464897554489539
aF-1.0119444334232686
aF-3.8768040503610246
aF-0.51964257847819861
aF4.7250559884216843
aF4.4592999841939376
aF-4.3647799879094631
aa(lp17
F-3.9389806087218191
aF8.4066387844098376
aF-0.59838952860334949
aF1.7829019010601794
aF0.74203617296604951
aF-5.3549705067699449
aF6.6466423394756813
aF-3.6387838250593192
aF2.0075890531314138
aF-2.2737418306563462
aF3.4210769787808379
aF-4.0947576877767897
aF5.3904249636424852
aF4.717088727002837
aF1.3189558359260436
aF1.8569404551913706
aF3.1141042247071495
aF-2.0579591996857518
aF6.793094422899931
aF1.8632044977302584
aF-3.216403607335073
aF0.28102897514371933
aF2.450921765389229
aF-2.7067749360282236
aF1.9258926152932783
aF-2.8475432681876636
aF-11.531430340703459
aF-1.6833102072672963
aF2.5960550979592911
aF-2.4871595467326806
aa(lp18
F0.95683787656412989
aF0.0083514703389819984
aF-0.20808119508862225
aF-1.1972476447871481
aF0.3519771764623752
aF-1.3989898259167155
aF-5.8579284071354261
aF2.1794622485713013
aF-0.12956060080644341
aF-7.7511021322879499
aF1.0513287784627843
aF-1.3967505296332026
aF1.7854151908888558
aF2.7001109856103964
aF1.1487774136560029
aF0.92001994893977879
aF-3.2328904096892392
aF-4.1314718118090061
aF-0.34252754869387408
aF3.3153805593057095
aF9.6421326076251397
aF-10.162072529680954
aF-0.34162719516441503
aF5.1147399950643191
aF3.3487977599808523
aF-0.96750883326367187
aF0.93045947060918266
aF5.4201881737974027
aF6.8291141646738449
aF0.6655649183809792
aaa(lp19
(lp20
F-0.11669627737006688
aF7.7124348828319524
aF-3.7919992109814133
aF4.2229216394261941
aF4.5114377232060967
aF1.9718897168079719
aF0.51504155636255922
aF-3.0020900043039598
aF0.99955570404749194
aa(lp21
F-1.8751066779202092
aF2.2938774242744291
aF-2.8809526515890957
aF-0.14116345129058505
aF1.8757399145803548
aF0.42374027648519802
aF0.00075916117604055394
aF-5.995697836872492
aF-4.970239250485383
aa(lp22
F0.91867005218620079
aF2.6492121179347428
aF-5.6394511748364913
aF-1.5968937772737593
aF-4.6806081221150357
aF2.5029943540408808
aF-8.8285366488592363
aF-2.8331968581802105
aF-4.170468173653088
aa(lp23
F-3.9663752049658427
aF3.8674630307691111
aF-1.6313180134616723
aF4.663102063614323
aF2.5822671440198568
aF-8.6542137651381239
aF-7.8803753531020737
aF0.99544617844006211
aF1.4783428927495126
aa(lp24
F-4.9501956120369233
aF-2.6774858577257223
aF7.3629005510963399
aF-2.6717330053662978
aF-2.0309116733796815
aF-0.5471610948458856
aF2.5631825368702992
aF-2.434513906207032
aF-3.5207160185733875
aa(lp25
F1.1144664396489627
aF-4.3526306082667707
aF3.0879326924372084
aF-2.3998269900849651
aF-1.9240559049303165
aF-2.4858469501242402
aF3.1335282759209129
aF-1.3136921527347378
aF-5.8128463213313388
aa(lp26
F2.6484478228284485
aF0.12667658327355677
aF-4.9192410796671346
aF2.0702491255516531
aF-2.5937465256353036
aF-4.9185624488503263
aF2.3013429542422439
aF-2.3287053522788468
aF2.9127197556606435
aa(lp27
F5.0144561798803116
aF-0.6638061386555909
aF-4.5116842834986652
aF-3.965792105531174
aF-1.4060269710170825
aF-3.8525629282591254
aF-5.4886681032109808
aF-0.64351539668218705
aF-2.2470555349474632
aa(lp28
F-5.6154213008472649
aF-2.7689308663879899
aF2.5641531267545643
aF5.6626051811224567
aF2.6622931409662769
aF-2.8429552876911717
aF-0.54311551030318894
aF-2.3663664900675383
aF-2.5450765321932445
aa(lp29
F2.0922070431178246
aF2.4410238060266538
aF-2.3737749413227487
aF-3.9523135372739526
aF-2.3763956663245085
aF-9.3659161848791381
aF1.50456684328463
aF-3.3915329611366563
aF1.1045475712013622
aa(lp30
F-5.2374869256885068
aF-3.3159575995401771
aF-5.7273842952102267
aF-3.2379775297098927
aF0.94254146954516727
aF-0.2929066059025221
aF3.8210608237542525
aF-1.4650538253295518
aF-5.8225940990022647
aa(lp31
F-5.8512793250701103
aF4.4679566695015822
aF0.59320403661483501
aF-2.7335273686627786
aF-3.5135025334411427
aF7.3934587267813461
aF-1.0782557258257908
aF3.9097821847018546
aF-2.8191868121188217
aa(lp32
F-7.0537154519047309
aF-2.7516940892884993
aF-3.3380486295952871
aF-7.7155414782784035
aF4.2766119912040299
aF-4.0591480097678767
aF0.33183946921827157
aF-2.7324713825010347
aF-0.61573721938608916
aa(lp33
F1.3803797991736904
aF-1.3896412513709839
aF4.2700115501443472
aF-1.3644092061566926
aF-5.3554446799644673
aF1.1119897109811687
aF-2.4312101473239403
aF-4.1541715098453702
aF0.89224475602862008
aa(lp34
F-2.2632342894674493
aF-11.684959455760072
aF-6.0819529732570281
aF-3.3400221533291834
aF-7.6282785443077534
aF-2.439619230391501
aF0.090602979533928152
aF4.4112966792504498
aF3.9211209266044116
aa(lp35
F3.5715143422167102
aF-1.8922418288142966
aF2.5632739544115775
aF-2.1709678704403106
aF-3.4035391192150892
aF1.6478922482871521
aF-4.9361512619692682
aF2.2869910381012875
aF2.79052537781461
aa(lp36
F-4.8805937567176212
aF4.8228705712499478
aF2.3667092826064717
aF0.63330278955685382
aF-3.4447434242497947
aF3.6156574424467043
aF-9.0277939328819432
aF-0.50953518727934954
aF5.8318734989496104
aa(lp37
F-2.0883010481539301
aF-4.8565087409772225
aF-5.3429712944261478
aF2.2589959271832858
aF-9.0622855592152955
aF-0.081702886614442263
aF0.56346674511516714
aF-3.5688082943630914
aF3.2511816613772422
aa(lp38
F5.7385881072028546
aF-5.2755137345786771
aF-1.1190592029503201
aF2.5141943032827534
aF5.0250169235385167
aF1.8225570906661792
aF2.4302276492562851
aF-8.7725102762418814
aF3.7664291475792377
aa(lp39
F-0.80503410097825956
aF4.28067400216647
aF1.2814394101022857
aF0.75365427239813443
aF-10.41382842854145
aF3.0059343269940419
aF-0.34324509267251369
aF-3.7303121833869266
aF-0.48173767726710531
aa(lp40
F-0.25272781005423922
aF-0.24179680239648846
aF0.11235574470972107
aF6.1612726149265429
aF-3.7344722963760626
aF-5.8290414481643618
aF-0.1082902138000459
aF0.30580597474478538
aF-5.5838226246420968
aa(lp41
F-0.70157829868176647
aF-4.2134652250456863
aF-0.40110369138067414
aF-2.963941117908246
aF2.0993007839824824
aF2.0242699516545799
aF-1.2667712863241039
aF2.9390386164705111
aF6.3939138275796585
aa(lp42
F-2.7478517724580676
aF0.60027827789062371
aF3.3540217662827616
aF3.4795782215191018
aF6.761481407249966
aF-0.33045702626555878
aF-0.27944425820589847
aF-4.6135260332694923
aF-4.9812476758347719
aa(lp43
F3.2067900540183376
aF2.2834416889266409
aF-1.5778383250639314
aF-4.0165079624574069
aF3.4505197102375025
aF0.79362299922915158
aF0.76768286435794442
aF3.5425058202147284
aF-3.7160660200714424
aa(lp44
F1.3108123535476361
aF0.085847338028635908
aF-3.88740464761942
aF-6.8751501770272991
aF0.86805266571533446
aF3.3045523896158935
aF2.1771487153430931
aF-2.5398001528804741
aF-3.8960245527621864
aa(lp45
F-1.7169155243377254
aF5.9218005252323387
aF-0.03298100761353865
aF-4.2683863797195158
aF1.8503469762519942
aF-5.8559226039833554
aF1.7072820307750063
aF-0.41958506948328333
aF-3.4463524816221245
aa(lp46
F-4.5701264179487131
aF-7.1894260800440515
aF-2.5144648893633383
aF-0.026466511522862918
aF1.6582395296509551
aF1.1048928843502317
aF-0.95198576725325135
aF5.5409798430687749
aF1.0426910035972108
aa(lp47
F4.8655635605422667
aF-3.9259270611332506
aF3.0924683829417865
aF2.4435985814252406
aF2.5150337263170557
aF0.44698207758369568
aF-7.1119652502776871
aF3.2533466894565004
aF-5.4974339755360253
aa(lp48
F-3.1928589389837105
aF-2.9362238582433706
aF-1.5214366462243045
aF-0.92324488144433448
aF1.6663906204759995
aF1.9397503104959906
aF0.66993764332062067
aF7.3526446763151458
aF-1.8494930297987928
aa(lp49
F4.4812596823013919
aF6.5956109969278804
aF2.2725966850742738
aF-1.8691780326918552
aF-7.0935665203726144
aF-4.3957013866830694
aF2.7650540456058197
aF1.9284781685548098
aF0.33582076392831683
aaasS'momentum'
p50
(lp51
(lp52
(lp53
F-0.0
aF-0.0
aF0.0
aF0.0
aF-0.0
aF-0.0
aF-0.0
aF0.0
aF0.0
aF-0.0
aF-0.0
aF0.0
aF-0.0
aF0.0
aF-0.0
aF0.0
aF0.0
aF-0.0
aF-0.0
aF0.0
aF0.0
aF0.0
aF0.0
aF-0.0
aF-0.0
aF-0.0
aF0.0
aF0.0
aF-0.0
aF-0.0
aa(lp54
F-9.4137082217126845e-06
aF-1.8831517979403196e-10
aF1.0507995964424131e-08
aF5.1943189874472745e-09
aF-5.8352756654963247e-05
aF-0.0016845874711787572
aF-5.6505453031746354e-06
aF6.596080357498091e-06
aF3.2187450242701641e-08
aF-1.7957990009425013e-05
aF-0.00056998315745762738
aF2.6342906550352253e-10
aF-4.1735068388189238e-10
aF0.0093822866486877477
aF-6.4704542784563591e-09
aF1.3208765840831675e-07
aF0.0006673381023984303
aF-3.4785668550898578e-10
aF-0.0021852242434671036
aF0.0016849657471950242
aF1.1133885057621863e-08
aF2.3816376962389646e-07
aF0.00054427179466024454
aF-2.0752589531646341e-07
aF-0.0051630607422535144
aF-1.3580742510731685e-05
aF1.1790306442550694e-05
aF1.5524020088322782e-05
aF-5.9424553654097254e-09
aF-5.649852046214174e-10
aa(lp55
F9.4137082217126845e-06
aF1.8831517979403196e-10
aF-1.0507995964424131e-08
aF-5.1943189874472745e-09
aF5.8352756654963247e-05
aF0.0016845874711787572
aF5.6505453031746354e-06
aF-6.596080357498091e-06
aF-3.2187450242701641e-08
aF1.7957990009425013e-05
aF0.00056998315745762738
aF-2.6342906550352253e-10
aF4.1735068388189238e-10
aF-0.0093822866486877477
aF6.4704542784563591e-09
aF-1.3208765840831675e-07
aF-0.0006673381023984303
aF3.4785668550898578e-10
aF0.0021852242434671036
aF-0.0016849657471950242
aF-1.1133885057621863e-08
aF-2.3816376962389646e-07
aF-0.00054427179466024454
aF2.0752589531646341e-07
aF0.0051630607422535144
aF1.3580742510731685e-05
aF-1.1790306442550694e-05
aF-1.5524020088322782e-05
aF5.9424553654097254e-09
aF5.649852046214174e-10
aa(lp56
F-9.4137082217126845e-06
aF-1.8831517979403196e-10
aF1.0507995964424131e-08
aF5.1943189874472745e-09
aF-5.8352756654963247e-05
aF-0.0016845874711787572
aF-5.6505453031746354e-06
aF6.596080357498091e-06
aF3.2187450242701641e-08
aF-1.7957990009425013e-05
aF-0.00056998315745762738
aF2.6342906550352253e-10
aF-4.1735068388189238e-10
aF0.0093822866486877477
aF-6.4704542784563591e-09
aF1.3208765840831675e-07
aF0.0006673381023984303
aF-3.4785668550898578e-10
aF-0.0021852242434671036
aF0.0016849657471950242
aF1.1133885057621863e-08
aF2.3816376962389646e-07
aF0.00054427179466024454
aF-2.0752589531646341e-07
aF-0.0051630607422535144
aF-1.3580742510731685e-05
aF1.1790306442550694e-05
aF1.5524020088322782e-05
aF-5.9424553654097254e-09
aF-5.649852046214174e-10
aa(lp57
F-9.4137082217126845e-06
aF-1.8831517979403196e-10
aF1.0507995964424131e-08
aF5.1943189874472745e-09
aF-5.8352756654963247e-05
aF-0.0016845874711787572
aF-5.6505453031746354e-06
aF6.596080357498091e-06
aF3.2187450242701641e-08
aF-1.7957990009425013e-05
aF-0.00056998315745762738
aF2.6342906550352253e-10
aF-4.1735068388189238e-10
aF0.0093822866486877477
aF-6.4704542784563591e-09
aF1.3208765840831675e-07
aF0.0006673381023984303
aF-3.4785668550898578e-10
aF-0.0021852242434671036
aF0.0016849657471950242
aF1.1133885057621863e-08
aF2.3816376962389646e-07
aF0.00054427179466024454
aF-2.0752589531646341e-07
aF-0.0051630607422535144
aF-1.3580742510731685e-05
aF1.1790306442550694e-05
aF1.5524020088322782e-05
aF-5.9424553654097254e-09
aF-5.649852046214174e-10
aa(lp58
F9.4137082217126845e-06
aF1.8831517979403196e-10
aF-1.0507995964424131e-08
aF-5.1943189874472745e-09
aF5.8352756654963247e-05
aF0.0016845874711787572
aF5.6505453031746354e-06
aF-6.596080357498091e-06
aF-3.2187450242701641e-08
aF1.7957990009425013e-05
aF0.00056998315745762738
aF-2.6342906550352253e-10
aF4.1735068388189238e-10
aF-0.0093822866486877477
aF6.4704542784563591e-09
aF-1.3208765840831675e-07
aF-0.0006673381023984303
aF3.4785668550898578e-10
aF0.0021852242434671036
aF-0.0016849657471950242
aF-1.1133885057621863e-08
aF-2.3816376962389646e-07
aF-0.00054427179466024454
aF2.0752589531646341e-07
aF0.0051630607422535144
aF1.3580742510731685e-05
aF-1.1790306442550694e-05
aF-1.5524020088322782e-05
aF5.9424553654097254e-09
aF5.649852046214174e-10
aa(lp59
F9.4137082217126845e-06
aF1.8831517979403196e-10
aF-1.0507995964424131e-08
aF-5.1943189874472745e-09
aF5.8352756654963247e-05
aF0.0016845874711787572
aF5.6505453031746354e-06
aF-6.596080357498091e-06
aF-3.2187450242701641e-08
aF1.7957990009425013e-05
aF0.00056998315745762738
aF-2.6342906550352253e-10
aF4.1735068388189238e-10
aF-0.0093822866486877477
aF6.4704542784563591e-09
aF-1.3208765840831675e-07
aF-0.0006673381023984303
aF3.4785668550898578e-10
aF0.0021852242434671036
aF-0.0016849657471950242
aF-1.1133885057621863e-08
aF-2.3816376962389646e-07
aF-0.00054427179466024454
aF2.0752589531646341e-07
aF0.0051630607422535144
aF1.3580742510731685e-05
aF-1.1790306442550694e-05
aF-1.5524020088322782e-05
aF5.9424553654097254e-09
aF5.649852046214174e-10
aa(lp60
F9.4137082217126845e-06
aF1.8831517979403196e-10
aF-1.0507995964424131e-08
aF-5.1943189874472745e-09
aF5.8352756654963247e-05
aF0.0016845874711787572
aF5.6505453031746354e-06
aF-6.596080357498091e-06
aF-3.2187450242701641e-08
aF1.7957990009425013e-05
aF0.00056998315745762738
aF-2.6342906550352253e-10
aF4.1735068388189238e-10
aF-0.0093822866486877477
aF6.4704542784563591e-09
aF-1.3208765840831675e-07
aF-0.0006673381023984303
aF3.4785668550898578e-10
aF0.0021852242434671036
aF-0.0016849657471950242
aF-1.1133885057621863e-08
aF-2.3816376962389646e-07
aF-0.00054427179466024454
aF2.0752589531646341e-07
aF0.0051630607422535144
aF1.3580742510731685e-05
aF-1.1790306442550694e-05
aF-1.5524020088322782e-05
aF5.9424553654097254e-09
aF5.649852046214174e-10
aa(lp61
F9.4137082217126845e-06
aF1.8831517979403196e-10
aF-1.0507995964424131e-08
aF-5.1943189874472745e-09
aF5.8352756654963247e-05
aF0.0016845874711787572
aF5.6505453031746354e-06
aF-6.596080357498091e-06
aF-3.2187450242701641e-08
aF1.7957990009425013e-05
aF0.00056998315745762738
aF-2.6342906550352253e-10
aF4.1735068388189238e-10
aF-0.0093822866486877477
aF6.4704542784563591e-09
aF-1.3208765840831675e-07
aF-0.0006673381023984303
aF3.4785668550898578e-10
aF0.0021852242434671036
aF-0.0016849657471950242
aF-1.1133885057621863e-08
aF-2.3816376962389646e-07
aF-0.00054427179466024454
aF2.0752589531646341e-07
aF0.0051630607422535144
aF1.3580742510731685e-05
aF-1.1790306442550694e-05
aF-1.5524020088322782e-05
aF5.9424553654097254e-09
aF5.649852046214174e-10
aaa(lp62
(lp63
F-1.3935094688670095e-09
aF-3.3241755403036203e-06
aF0.00028424057122037325
aF-2.148656714775285e-22
aF-1.5342349853204678e-25
aF-2.8751906032555291e-10
aF-0.02087986958037499
aF-4.9764579933209508e-08
aF-1.0073827497327687e-07
aa(lp64
F-3.1182471728414443e-16
aF-7.4384862192634974e-13
aF6.3604329745631167e-11
aF-4.808035306500125e-29
aF-3.4331477556013361e-32
aF-6.4337955143363833e-17
aF-4.6722749821885899e-09
aF-1.113578803382944e-14
aF-2.2542138977192953e-14
aa(lp65
F-8.0139918206594727e-17
aF-1.9117139987637854e-13
aF1.6346509756490508e-11
aF-1.2356799664672766e-29
aF-8.8232960722717915e-33
aF-1.6535053756083082e-17
aF-1.2007891426070463e-09
aF-2.8619320173514839e-15
aF-5.7933995405109972e-15
aa(lp66
F-4.4118831157355908e-17
aF-1.0524416423184293e-13
aF8.999122036779531e-12
aF-6.8026967115884571e-30
aF-4.8574233462580121e-33
aF-9.1029197579390826e-18
aF-6.610614862582543e-10
aF-1.5755580774597137e-15
aF-3.1893970180502978e-15
aa(lp67
F-1.3930194869228493e-09
aF-3.3230067028968014e-06
aF0.00028414062733710062
aF-2.1479012100457083e-22
aF-1.5336955218595433e-25
aF-2.8741796366901134e-10
aF-0.020872527858399378
aF-4.9747081849292062e-08
aF-1.0070285365973323e-07
aa(lp68
F-1.3573502523908323e-09
aF-3.2379188010046907e-06
aF0.00027686500860261358
aF-2.0929027030384865e-22
aF-1.4944241794386589e-25
aF-2.8005842645430157e-10
aF-0.020338072239905552
aF-4.8473273157867696e-08
aF-9.8124286928289272e-08
aa(lp69
F-1.5924954054122425e-13
aF-3.7988505948376049e-10
aF3.2482865298950823e-08
aF-2.4554737678745975e-26
aF-1.7533157969368191e-29
aF-3.2857529336285107e-14
aF-2.3861406840233935e-06
aF-5.6870704266071761e-12
aF-1.1512317901544795e-11
aa(lp70
F-1.39451451249845e-09
aF-3.326573042101214e-06
aF0.0002844455746181143
aF-2.1502063947707087e-22
aF-1.5353415246986202e-25
aF-2.8772642827457224e-10
aF-0.020894928810624876
aF-4.9800471741087824e-08
aF-1.0081093064154909e-07
aa(lp71
F-3.716446406766335e-15
aF-8.8654727637167966e-12
aF7.5806076181745833e-10
aF-5.7304006218870237e-28
aF-4.0917569817199562e-31
aF-7.6680439027982815e-16
aF-5.5685962678693534e-08
aF-1.3272058669783115e-13
aF-2.6866584577474723e-13
aa(lp72
F-1.3938212199161186e-09
aF-3.3249192131922983e-06
aF0.00028430416052368054
aF-2.1491374047167402e-22
aF-1.5345782189883686e-25
aF-2.8758338308093993e-10
aF-0.020884540751538425
aF-4.9775713090428218e-08
aF-1.0076081178670369e-07
aa(lp73
F-9.8268186686090632e-12
aF-2.3441584708963856e-08
aF2.0044216519859448e-06
aF-1.5152003189725768e-24
aF-1.0819193792804558e-27
aF-2.0275410628427689e-12
aF-0.00014724169212669566
aF-3.5093231445406263e-10
aF-7.1039112633783303e-10
aa(lp74
F-1.3945957750947347e-09
aF-3.3267668916163744e-06
aF0.00028446215012571067
aF-2.1503316938282811e-22
aF-1.535430993712648e-25
aF-2.8774319496747634e-10
aF-0.020896146421592075
aF-4.9803373765838099e-08
aF-1.0081680520067657e-07
aa(lp75
F-7.3826559407288409e-17
aF-1.7611106956166752e-13
aF1.5058744763481152e-11
aF-1.138334084864159e-29
aF-8.1282038492780078e-33
aF-1.5232435417256533e-17
aF-1.1061919322624289e-09
aF-2.6364712970375017e-15
aF-5.3370001482294566e-15
aa(lp76
F-1.0638126667732582e-09
aF-2.5376935897163389e-06
aF0.00021699078967934678
aF-1.6402961592961429e-22
aF-1.1712432872936306e-25
aF-2.1949360599734706e-10
aF-0.015939805388072603
aF-3.7990549524318269e-08
aF-7.6904144061963998e-08
aa(lp77
F-1.3945934189484985e-09
aF-3.3267612710993543e-06
aF0.00028446166953166591
aF-2.1503280608788508e-22
aF-1.5354283996276656e-25
aF-2.8774270883016117e-10
aF-0.0208961111179022
aF-4.9803289623871121e-08
aF-1.0081663487237045e-07
aa(lp78
F-1.7732606208605528e-15
aF-4.2300606591793596e-12
aF3.6170017000731262e-10
aF-2.734196232736356e-28
aF-1.9523358422726268e-31
aF-3.6587209402793821e-16
aF-2.6569931043013723e-08
aF-6.3326135832414271e-14
aF-1.2819088783714765e-13
aa(lp79
F-4.9337631302822328e-12
aF-1.176934573158701e-08
aF1.0063624838930143e-06
aF-7.6073851780933671e-25
aF-5.4320061491348443e-28
aF-1.0179700753960119e-12
aF-7.39258203853562e-05
aF-1.76193025705148e-10
aF-3.566669606310512e-10
aa(lp80
F-1.3945957555352449e-09
aF-3.326766844957791e-06
aF0.0002844621461360711
aF-2.1503316636694411e-22
aF-1.5354309721779156e-25
aF-2.877431909318194e-10
aF-0.020896146128519363
aF-4.9803373067335634e-08
aF-1.0081680378670035e-07
aa(lp81
F-6.244214677418786e-11
aF-1.4895389061085266e-07
aF1.273661346682632e-05
aF-9.6279746172393572e-24
aF-6.8747954915129061e-27
aF-1.2883520181475091e-11
aF-0.00093561178455695373
aF-2.2299146678003879e-09
aF-4.5140089049945094e-09
aa(lp82
F-9.0290285485438504e-10
aF-2.1538480020645616e-06
aF0.00018416927114889159
aF-1.3921888047520665e-22
aF-9.9408377137875731e-26
aF-1.8629351733365735e-10
aF-0.013528787765206787
aF-3.2244187998849022e-08
aF-6.5271803384608548e-08
aa(lp83
F-6.762302904315554e-15
aF-1.6131273172421626e-11
aF1.3793381984340726e-09
aF-1.0426816514218242e-27
aF-7.4452035877233582e-31
aF-1.3952477684033019e-15
aF-1.0132403536511233e-07
aF-2.4149327358930383e-13
aF-4.8885403698146094e-13
aa(lp84
F-1.3945830859071706e-09
aF-3.3267366219354937e-06
aF0.00028445956185343691
aF-2.1503121283293209e-22
aF-1.5354170230896053e-25
aF-2.8774057684153871e-10
aF-0.020895956291142773
aF-4.9802920613489348e-08
aF-1.0081588788587206e-07
aa(lp85
F-1.267779921792106e-09
aF-3.0242514318440934e-06
aF0.00025859493401569347
aF-1.954793923309798e-22
aF-1.3958084628457768e-25
aF-2.6157762107611244e-10
aF-0.018995981021326998
aF-4.5274565164624973e-08
aF-9.1649152890887957e-08
aa(lp86
F-1.7533316825190873e-14
aF-4.1825207673745477e-11
aF3.5763517228426212e-09
aF-2.7034677388564058e-27
aF-1.9303943520230986e-30
aF-3.6176020978657548e-15
aF-2.6271322642610496e-07
aF-6.2614439739036302e-13
aF-1.2675020378338211e-12
aa(lp87
F-1.2185080251206533e-09
aF-2.9067147825432612e-06
aF0.00024854471737354052
aF-1.8788214279675833e-22
aF-1.3415607742901333e-25
aF-2.5141148317182394e-10
aF-0.0182577077627218
aF-4.3514982402434674e-08
aF-8.8087235310679964e-08
aa(lp88
F-1.3940684990024169e-09
aF-3.3255090901243651e-06
aF0.00028435459918255628
aF-2.1495186851321723e-22
aF-1.534850469901486e-25
aF-2.8763440350966253e-10
aF-0.020888245896847599
aF-4.978454384481549e-08
aF-1.0077868785367503e-07
aa(lp89
F-1.3937286250519733e-09
aF-3.3246983308879965e-06
aF0.0002842852735209979
aF-2.1489946323990453e-22
aF-1.5344762733014487e-25
aF-2.8756427823169069e-10
aF-0.020883153341742965
aF-4.9772406371226722e-08
aF-1.0075411800593378e-07
aa(lp90
F-1.4482370654012106e-13
aF-3.4547265999433578e-10
aF2.9540361219565063e-08
aF-2.2330413712156396e-26
aF-1.5944893252737816e-29
aF-2.9881085810729526e-14
aF-2.1699889180966992e-06
aF-5.1718994964556962e-12
aF-1.0469459087314038e-11
aa(lp91
F-5.7461836917342381e-16
aF-1.3707350904249551e-12
aF1.1720756631841791e-10
aF-8.8600590447479134e-29
aF-6.326470145268852e-32
aF-1.1855946245192812e-16
aF-8.6098852393043128e-09
aF-2.0520593797666105e-14
aF-4.1539770322158238e-14
aa(lp92
F-1.3945957777222779e-09
aF-3.3267668978843004e-06
aF0.00028446215066166281
aF-2.1503316978796985e-22
aF-1.5354309966055373e-25
aF-2.877431955096102e-10
aF-0.02089614646096228
aF-4.9803373859672104e-08
aF-1.0081680539062444e-07
aaasS'layers_list'
p93
(lp94
I9
aI30
aI9
asS'num_layers'
p95
I3
sbI2000
tp96
.